Certificate:
    Data:
        Version: 3 (0x2)
        Serial Number: 1 (0x1)
    Signature Algorithm: sha256WithRSAEncryption
        Issuer: C=US, ST=Denial, L=Springfield, O=Dis, CN=www.example.com
        Validity
            Not Before: Oct 14 13:43:42 2016 GMT
            Not After : Oct  2 13:43:42 2066 GMT
        Subject: C=US, ST=Denial, O=Dis, CN=www.example.com
        Subject Public Key Info:
            Public Key Algorithm: rsaEncryption
                Public-Key: (2048 bit)
                Modulus:
                    00:d3:57:2f:a9:3b:cb:e3:71:ef:db:42:f0:af:c8:
                    58:95:39:65:93:48:d7:c0:71:db:6b:11:95:3c:92:
                    01:fa:d6:32:ed:83:53:a6:b7:3f:f1:f4:ba:65:42:
                    f0:b6:53:69:48:94:08:ae:2c:f5:80:53:24:e0:98:
                    31:21:74:e3:f5:ef:c8:77:76:80:89:02:52:9f:9d:
                    69:f0:b1:e5:83:55:6f:ec:dd:aa:e7:92:09:d1:a1:
                    17:e4:cc:42:69:13:82:42:3c:71:e2:d4:e8:22:5f:
                    b1:74:c9:2c:31:0a:70:5c:42:f7:77:d1:e1:76:83:
                    8f:f1:a2:06:20:55:e3:ea:fa:65:5c:83:89:7e:32:
                    20:8b:45:2a:51:0b:34:f1:f5:77:15:7b:fc:f0:6d:
                    e4:34:7d:54:8e:8a:f3:0a:a6:f1:7f:d6:65:2b:b3:
                    ef:82:17:31:97:f4:71:5f:67:d7:80:11:d5:43:82:
                    2f:0f:4e:39:49:45:0c:a8:8e:1a:29:7a:4e:bf:94:
                    c8:af:42:2f:9f:bb:e9:43:18:f3:a6:9a:e8:c8:ad:
                    eb:df:2c:94:fe:2b:a7:60:27:fc:b8:1a:3c:2e:6e:
                    f3:60:51:e7:0c:53:70:de:88:b6:6d:6c:6a:21:17:
                    0a:17:d3:e5:94:fc:13:79:33:8f:6d:e7:89:b7:66:
                    7e:29
                Exponent: 65537 (0x10001)
        X509v3 extensions:
            X509v3 Basic Constraints: 
                CA:FALSE
            Netscape Comment: 
                OpenSSL Generated Certificate
            X509v3 Subject Key Identifier: 
                73:7C:07:15:F5:CD:48:57:D5:D2:79:DF:0E:C4:E8:7A:29:1F:03:16
            X509v3 Authority Key Identifier: 
                keyid:06:92:7E:66:89:32:68:67:50:B4:CB:BD:37:37:28:A8:E3:DC:FB:23

    Signature Algorithm: sha256WithRSAEncryption
         be:89:f1:3e:5e:3b:72:80:96:8b:74:d5:1d:06:14:02:d9:35:
         b5:41:ed:6e:43:c1:d6:b9:1d:07:08:4e:c6:93:d0:a2:b8:93:
         81:71:34:d1:a8:f5:1d:d5:48:6f:14:af:14:65:69:1b:4e:9f:
         87:25:a2:62:fa:99:fd:c1:e6:ce:fb:87:44:38:b7:8b:c7:1d:
         88:0e:61:2f:14:d8:61:b2:bd:01:b5:a6:6c:11:76:b6:57:a1:
         03:cb:6a:8e:dc:97:25:33:75:49:a9:44:d7:08:6c:3d:ae:2e:
         fe:4e:69:47:c1:3b:43:6a:fe:89:10:9f:3a:7f:7b:28:61:3b:
         4a:62:bb:c3:7f:01:7b:90:e1:38:e2:83:b4:c1:4f:ac:5a:12:
         9b:5e:4b:64:9e:50:d8:6f:79:7f:8f:f1:4e:4b:eb:9e:0e:b7:
         64:36:9c:cf:bc:7c:bd:a4:1e:37:a6:5f:2e:b1:24:88:50:cc:
         68:91:95:b8:9e:2a:00:5a:fb:28:eb:a1:9b:4f:54:cd:01:d3:
         90:34:b4:5d:aa:db:2e:90:37:0b:a6:8c:3c:80:43:c2:88:2d:
         00:b1:a1:5d:fe:4e:98:02:57:5f:fb:fc:78:7d:59:04:96:9c:
         2a:1a:be:ca:5b:87:2b:66:bc:55:6f:14:dd:85:e1:b5:4b:6f:
         f7:c7:dd:eb
-----BEGIN CERTIFICATE-----
MIIDmjCCAoKgAwIBAgIBATANBgkqhkiG9w0BAQsFADBcMQswCQYDVQQGEwJVUzEP
MA0GA1UECAwGRGVuaWFsMRQwEgYDVQQHDAtTcHJpbmdmaWVsZDEMMAoGA1UECgwD
RGlzMRgwFgYDVQQDDA93d3cuZXhhbXBsZS5jb20wIBcNMTYxMDE0MTM0MzQyWhgP
MjA2NjEwMDIxMzQzNDJaMEYxCzAJBgNVBAYTAlVTMQ8wDQYDVQQIDAZEZW5pYWwx
DDAKBgNVBAoMA0RpczEYMBYGA1UEAwwPd3d3LmV4YW1wbGUuY29tMIIBIjANBgkq
hkiG9w0BAQEFAAOCAQ8AMIIBCgKCAQEA01cvqTvL43Hv20Lwr8hYlTllk0jXwHHb
axGVPJIB+tYy7YNTprc/8fS6ZULwtlNpSJQIriz1gFMk4JgxIXTj9e/Id3aAiQJS
n51p8LHlg1Vv7N2q55IJ0aEX5MxCaROCQjxx4tToIl+xdMksMQpwXEL3d9HhdoOP
8aIGIFXj6vplXIOJfjIgi0UqUQs08fV3FXv88G3kNH1UjorzCqbxf9ZlK7Pvghcx
l/RxX2fXgBHVQ4IvD045SUUMqI4aKXpOv5TIr0Ivn7vpQxjzpproyK3r3yyU/iun
YCf8uBo8Lm7zYFHnDFNw3oi2bWxqIRcKF9PllPwTeTOPbeeJt2Z+KQIDAQABo3sw
eTAJBgNVHRMEAjAAMCwGCWCGSAGG+EIBDQQfFh1PcGVuU1NMIEdlbmVyYXRlZCBD
ZXJ0aWZpY2F0ZTAdBgNVHQ4EFgQUc3wHFfXNSFfV0nnfDsToeikfAxYwHwYDVR0j
BBgwFoAUBpJ+ZokyaGdQtMu9NzcoqOPc+yMwDQYJKoZIhvcNAQELBQADggEBAL6J
8T5eO3KAlot01R0GFALZNbVB7W5Dwda5HQcITsaT0KK4k4FxNNGo9R3VSG8UrxRl
aRtOn4clomL6mf3B5s77h0Q4t4vHHYgOYS8U2GGyvQG1pmwRdrZXoQPLao7clyUz
dUmpRNcIbD2uLv5OaUfBO0Nq/okQnzp/eyhhO0piu8N/AXuQ4Tjig7TBT6xaEpte
S2SeUNhveX+P8U5L654Ot2Q2nM+8fL2kHjemXy6xJIhQzGiRlbieKgBa+yjroZtP
VM0B05A0tF2q2y6QNwumjDyAQ8KILQCxoV3+TpgCV1/7/Hh9WQSWnCoavspbhytm
vFVvFN2F4bVLb/fH3es=
-----END CERTIFICATE-----
-----BEGIN PRIVATE KEY-----
MIIEvgIBADANBgkqhkiG9w0BAQEFAASCBKgwggSkAgEAAoIBAQDTVy+pO8vjce/b
QvCvyFiVOWWTSNfAcdtrEZU8kgH61jLtg1Omtz/x9LplQvC2U2lIlAiuLPWAUyTg
mDEhdOP178h3doCJAlKfnWnwseWDVW/s3arnkgnRoRfkzEJpE4JCPHHi1OgiX7F0
ySwxCnBcQvd30eF2g4/xogYgVePq+mVcg4l+MiCLRSpRCzTx9XcVe/zwbeQ0fVSO
ivMKpvF/1mUrs++CFzGX9HFfZ9eAEdVDgi8PTjlJRQyojhopek6/lMivQi+fu+lD
GPOmmujIrevfLJT+K6dgJ/y4GjwubvNgUecMU3DeiLZtbGohFwoX0+WU/BN5M49t
54m3Zn4pAgMBAAECggEAZu5MwUDlYaZJauHkdci/FBa7WQueQRVzB2et5q06F6Ah
d7qBkG4pz78g1VbQBA0F9xpaS/KLs29LQ7P8Ic5bhJm/aiemHJSsBx9UzKzoGpoP
BC9GILjo3Vd3WrD9G04sH/Ruh0qosK0osbeVNWFfLiBThOEMzXrwLYB7OV57viJI
4YAXGOzOgK3aMHF8cYRRgTDIi2dGAMH1EyIIB8gKYlp1PdMmaTOk2LBhechuImRX
4LgvM1fUdJ7utyQKEXMJEg+wzV9BMlX6nvM3vVWdYZy2Hsu9DDyJUFYQk9cDpXNP
RF4jjLUtz6gEZOlotOQgPWqLANJrt/BdVfyeA97psQKBgQD7SeNlQd2bu8GfH0vB
mjzSWmJ3nDnpeaUR9MIYVQ6zNlvYPjM2BMVQtE5+VWK15YOjD5L9SoresNKubrSv
wzNFeqf6Dvq7zJ+6Rkst7GcRV/P3D4C3ZeKeDNjVm4eMRCa5ttIJlLmfqffeLO9M
RSanNjnjwWENgsXCCvlVBfc9ZQKBgQDXTY8X9ug9xVlqBR4TMfzXBadzP+nDqYd9
MkH3tEltLba0vP4vKyjQa8A9FMzSRr9bv13mNpAbFEDGnhzv1l5OlHTM6tG//Rxq
nnhmFLFWZl8WowP0LiPTafrDjGEX/7iDAJjAtSacBBm6EGaM8igWEQT0WXwsQbTw
rlRolJ5DdQKBgQDgMBJ80x+IAiGC+iPXLOjYbqTsu2d7YfigJXJIzRHZV0Tnjs6X
gfgbwVFKKplvWL1xa8Ki0a9FcBH2Z3QyXv9OHFjiohyWEb/rKy2FYiSt938Dy0P1
2yMsCKAnKqPqwx6dj3qh65sT1Er8X7B6pjMO+TT6ehtBN4uBS9MYRMNIdQKBgQDU
6UztTOzDUSqn7mGcZ916IYxDK1wXcsmapB2aQD4wanl4aEEREiQtX7DednhKJU5N
A4RvCVweezvHbkp9Xscp/CM5FanQqxPz17yGbkYkg93au+BIE2y4P+CMioDlw6uK
WQe14i5JMMDkQB25mirMD46PuQJTnbK6JBsyxG1xlQKBgGtcSY0AyVq00p0kkxNm
KhzI+17T0j0CuczJ/X+NvCUjLsx3NTJatRkJNYHWG7jUqs1vvtZbHVspQeteMlEi
rNE/xz98iG2eC8AdW+TmZvySmIZgoAoPuopUvBzRiyfLQVh4pPuikbTDghEn+CSG
WSyOd/I4JsH4xQFJC89nnm5M
-----END PRIVATE KEY-----
