Certificate:
    Data:
        Version: 3 (0x2)
        Serial Number: 1 (0x1)
    Signature Algorithm: sha256WithRSAEncryption
        Issuer: C=US, ST=Denial, L=Springfield, O=Dis, CN=www.example.com
        Validity
            Not Before: May 25 13:34:27 2016 GMT
            Not After : May 23 13:34:27 2026 GMT
        Subject: C=US, ST=Denial, O=Dis, CN=www.example.com
        Subject Public Key Info:
            Public Key Algorithm: rsaEncryption
                Public-Key: (2048 bit)
                Modulus:
                    00:de:9a:d1:1a:9a:65:61:23:f3:7a:91:c9:51:ae:
                    7c:f1:48:5e:d3:41:d6:df:e9:b6:e9:c2:c2:b1:84:
                    47:30:82:8e:16:75:af:66:3d:a6:f9:da:bc:f9:e0:
                    b6:9b:35:34:04:99:3d:4a:a0:9c:9e:28:83:8f:f7:
                    e2:53:ca:29:0e:30:8b:5f:3d:27:39:77:5e:94:a2:
                    e5:51:cd:78:bd:39:d3:c3:1c:6b:ce:93:7d:0f:9e:
                    d2:19:e8:5e:9b:61:2e:1c:0f:c6:08:e1:a4:8d:ec:
                    45:32:f8:9c:3a:06:3c:24:8f:5a:ce:55:78:5d:80:
                    4c:05:3c:b1:9d:ce:90:69:f0:3b:e6:6b:1e:e3:48:
                    61:24:65:65:d3:36:bf:83:18:c4:89:d7:18:aa:e4:
                    16:bb:6f:75:74:8f:26:06:dd:de:b1:dc:1d:45:10:
                    da:03:37:90:43:12:d0:6f:7a:95:e3:75:c3:0f:c0:
                    52:bb:5a:49:03:6d:14:ae:2e:11:43:20:13:5a:07:
                    ef:ea:73:9e:1f:ec:19:bc:34:8a:e7:b5:f0:61:9b:
                    24:3f:61:a3:45:af:52:ad:18:c9:77:be:3e:20:45:
                    de:29:77:90:4a:af:b2:b1:2e:2d:c7:09:72:b2:ca:
                    4c:de:4d:c6:35:64:5c:80:e0:38:cc:0d:35:11:d2:
                    52:bf
                Exponent: 65537 (0x10001)
        X509v3 extensions:
            X509v3 Basic Constraints: 
                CA:FALSE
            Netscape Comment: 
                OpenSSL Generated Certificate
            X509v3 Subject Key Identifier: 
                B8:68:01:F4:21:7E:27:2F:9A:E6:5F:9E:1F:C4:F5:1E:FF:4D:39:86
            X509v3 Authority Key Identifier: 
                keyid:A4:F7:97:63:19:08:49:4F:5F:35:FF:2D:81:18:40:D2:91:47:63:E2

    Signature Algorithm: sha256WithRSAEncryption
         5b:46:32:11:5e:b6:68:bf:2b:50:8b:60:0f:70:27:08:21:cd:
         6b:ce:ec:a2:17:b2:e0:2d:43:1a:ee:b2:c9:e9:ea:87:a4:7a:
         a3:4b:89:0c:63:9c:02:3c:9a:a4:96:28:b0:ba:72:34:17:5c:
         2f:e2:1a:83:a0:de:c5:da:14:5e:5c:db:7d:ef:24:0c:dd:1b:
         7c:26:6f:a7:b1:fb:22:1b:4e:2f:d6:0e:bd:15:73:6d:12:23:
         2e:9d:d6:78:4d:8d:21:9f:b2:c9:d0:42:92:5d:5c:09:bf:ca:
         63:e8:eb:58:d4:fe:f7:4a:05:69:ab:8d:34:aa:cf:dc:e9:89:
         80:9c:43:35:51:81:76:a3:f4:c6:db:99:71:d6:21:d1:ce:a7:
         f2:2f:f6:38:40:84:0c:de:04:bc:43:9d:37:32:2b:12:c5:9e:
         33:1b:da:d5:db:f5:00:19:fa:66:6a:2f:7c:3e:33:33:dc:9d:
         6d:33:e3:51:e1:14:6d:f7:dd:a7:3f:cd:80:4f:6e:2f:a9:70:
         48:99:76:58:2a:a6:2d:66:ee:98:08:f4:b8:14:e8:f4:a9:66:
         5c:e6:c4:d5:c6:48:05:16:30:54:51:ca:7e:ce:3e:f2:d0:06:
         90:43:1f:4f:99:c2:07:79:50:01:81:7c:2b:09:8a:55:ef:4c:
         a4:25:ba:2a
-----BEGIN CERTIFICATE-----
MIIDmDCCAoCgAwIBAgIBATANBgkqhkiG9w0BAQsFADBcMQswCQYDVQQGEwJVUzEP
MA0GA1UECAwGRGVuaWFsMRQwEgYDVQQHDAtTcHJpbmdmaWVsZDEMMAoGA1UECgwD
RGlzMRgwFgYDVQQDDA93d3cuZXhhbXBsZS5jb20wHhcNMTYwNTI1MTMzNDI3WhcN
MjYwNTIzMTMzNDI3WjBGMQswCQYDVQQGEwJVUzEPMA0GA1UECAwGRGVuaWFsMQww
CgYDVQQKDANEaXMxGDAWBgNVBAMMD3d3dy5leGFtcGxlLmNvbTCCASIwDQYJKoZI
hvcNAQEBBQADggEPADCCAQoCggEBAN6a0RqaZWEj83qRyVGufPFIXtNB1t/ptunC
wrGERzCCjhZ1r2Y9pvnavPngtps1NASZPUqgnJ4og4/34lPKKQ4wi189Jzl3XpSi
5VHNeL0508Mca86TfQ+e0hnoXpthLhwPxgjhpI3sRTL4nDoGPCSPWs5VeF2ATAU8
sZ3OkGnwO+ZrHuNIYSRlZdM2v4MYxInXGKrkFrtvdXSPJgbd3rHcHUUQ2gM3kEMS
0G96leN1ww/AUrtaSQNtFK4uEUMgE1oH7+pznh/sGbw0iue18GGbJD9ho0WvUq0Y
yXe+PiBF3il3kEqvsrEuLccJcrLKTN5NxjVkXIDgOMwNNRHSUr8CAwEAAaN7MHkw
CQYDVR0TBAIwADAsBglghkgBhvhCAQ0EHxYdT3BlblNTTCBHZW5lcmF0ZWQgQ2Vy
dGlmaWNhdGUwHQYDVR0OBBYEFLhoAfQhficvmuZfnh/E9R7/TTmGMB8GA1UdIwQY
MBaAFKT3l2MZCElPXzX/LYEYQNKRR2PiMA0GCSqGSIb3DQEBCwUAA4IBAQBbRjIR
XrZovytQi2APcCcIIc1rzuyiF7LgLUMa7rLJ6eqHpHqjS4kMY5wCPJqkliiwunI0
F1wv4hqDoN7F2hReXNt97yQM3Rt8Jm+nsfsiG04v1g69FXNtEiMundZ4TY0hn7LJ
0EKSXVwJv8pj6OtY1P73SgVpq400qs/c6YmAnEM1UYF2o/TG25lx1iHRzqfyL/Y4
QIQM3gS8Q503MisSxZ4zG9rV2/UAGfpmai98PjMz3J1tM+NR4RRt992nP82AT24v
qXBImXZYKqYtZu6YCPS4FOj0qWZc5sTVxkgFFjBUUcp+zj7y0AaQQx9PmcIHeVAB
gXwrCYpV70ykJboq
-----END CERTIFICATE-----
-----BEGIN PRIVATE KEY-----
MIIEvwIBADANBgkqhkiG9w0BAQEFAASCBKkwggSlAgEAAoIBAQDemtEammVhI/N6
kclRrnzxSF7TQdbf6bbpwsKxhEcwgo4Wda9mPab52rz54LabNTQEmT1KoJyeKIOP
9+JTyikOMItfPSc5d16UouVRzXi9OdPDHGvOk30PntIZ6F6bYS4cD8YI4aSN7EUy
+Jw6Bjwkj1rOVXhdgEwFPLGdzpBp8Dvmax7jSGEkZWXTNr+DGMSJ1xiq5Ba7b3V0
jyYG3d6x3B1FENoDN5BDEtBvepXjdcMPwFK7WkkDbRSuLhFDIBNaB+/qc54f7Bm8
NIrntfBhmyQ/YaNFr1KtGMl3vj4gRd4pd5BKr7KxLi3HCXKyykzeTcY1ZFyA4DjM
DTUR0lK/AgMBAAECggEBANc77CkD1jhZsYb2xSg0RVxqtD0hsOipqxFVHjjUBJ1T
7pyqx6BcxkFZjVUyQH3LsHMt08R/jU+jLqoabPzFQHMW3vuEPpPi5lFjO8WfnTmh
Wy6RIXAIzWg4ET+5nRgxm4rIeZuGyTvsknAZT70O4EIdVhihLZOChH6f08EYxCuY
rj3AlgrCu/YDZBe2eZlqqTWP/nEdB3ZfXjFXaS9EUuLAdQRqK1zapa++FE6pvuLZ
8apSrCWnP/q5d7vxg41E5Gv15Yv313W5b3kXiFpFL+WsLez8sQgkL+8rd6adyqE7
hDHQV1IXck3D9ZTYCOZFn7YuLsd1seBtB+Dlxld3NGECgYEA7+gX3/8bQloo7xCn
bGK0dq1c9+L5CZ9hVoYZdFJWyUYxpWN8+G8tznE718nvbvLTj6v8UOQMRTo6L9Ib
nH22LccWSwaLWh43bQZC14s9QKrvSfDZJCkPKkym/Xq4FqUXJCggNewf3QLBuTZq
6Yd80sIie1JMCEgmdtfYinU1I+8CgYEA7YmZcNX+LEz1r/1Xzm0toP2UZEzhHVg0
7ziDhlyduybFZ1NwZzU2Ude06gsST4sNt9Sf4k/X5mhPjCw/gwRUhcmFwD3HU35a
48wl0X302pL0J0mZEHdUcc9CSaOIfH5xMsU2Xb/DoR/qyI1pwTr70Dfun+jRV27Q
HRA3Vf1mrjECgYEAryz78fWnA+YtqZKxjbTtLRMdpWu4iMw2GSXGBGfzMvjsW2Wv
5P/ZpLqOBd1P1eW9kVT14mMCirIftrdmrfglRHvwzUu0CVOzCQrfV+A2E7g9DfKt
u3e3uR1Leh9XuEFICoC6NGV8RrcymXkgy/DAtmxHHWFUX1+/pluppEA9U0UCgYEA
qzs0xDVOq4qy1THQeTsU2GfT79XHtYqfZg8cKOBcx8u0I77vWUbvqGHRxaFDitmX
gvwgYVjjLvHk3gwLoJuffm3+H82pAZQlWu8QGAsvVdz3adbRIyCSXBRnGYRsYCoZ
2dp2TXBuSpkie34NTUECw19+ggGn3to/5aOJ8E/iFBECgYAD9uaFgW6YNdTHB9k2
3Rm09i23gw1H0AkFmBbR4iu8X1oCeptZRaodgQue6JuY0rN/RMe7HZWHG6SD+7Sk
oN2lS/ASqvF3Ams3pkGveU/i9OGMpXjWv2Vrd/FOl+BKaKU1kwNp32vuIvvoycuH
+B8mcRkAmzXpfTFeA6+jslAN/g==
-----END PRIVATE KEY-----
